; Function Attrs: nounwind uwtable
define internal range(i32 0, 2) i32 @lj_cf_jit_util_traceexitstub(ptr noundef %0) #0 {
  %2 = tail call i32 @lj_lib_checkint(ptr noundef %0, i32 noundef 1) #8
  %3 = icmp ult i32 %2, 512
  br i1 %3, label %4, label %22

4:                                                ; preds = %1
  %5 = getelementptr inbounds nuw i8, ptr %0, i64 16
  %6 = load i64, ptr %5, align 8, !tbaa !4
  %7 = inttoptr i64 %6 to ptr
  %8 = getelementptr inbounds nuw i8, ptr %0, i64 40
  %9 = load ptr, ptr %8, align 8, !tbaa !32
  %10 = getelementptr inbounds i8, ptr %9, i64 -8
  %11 = getelementptr inbounds nuw i8, ptr %7, i64 2432
  %12 = lshr i32 %2, 5
  %13 = zext nneg i32 %12 to i64
  %14 = getelementptr inbounds nuw ptr, ptr %11, i64 %13
  %15 = load ptr, ptr %14, align 8, !tbaa !78
  %16 = shl nuw nsw i32 %2, 2
  %17 = and i32 %16, 124
  %18 = zext nneg i32 %17 to i64
  %19 = getelementptr inbounds nuw i8, ptr %15, i64 %18
  %20 = ptrtoint ptr %19 to i64
  %21 = sitofp i64 %20 to double
  store double %21, ptr %10, align 8, !tbaa !34
  br label %22

22:                                               ; preds = %1, %4
  %.0 = phi i32 [ 1, %4 ], [ 0, %1 ]
  ret i32 %.0
}